; Function Attrs: nounwind sspstrong uwtable
define internal range(i64 1, 0) i64 @addrinfo_pfamily(i64 noundef %0) #0 {
  %2 = tail call ptr @rb_check_typeddata(i64 noundef %0, ptr noundef nonnull @addrinfo_type) #21
  %.not.i = icmp eq ptr %2, null
  br i1 %.not.i, label %3, label %get_addrinfo.exit

3:                                                ; preds = %1
  %4 = load i64, ptr @rb_eTypeError, align 8, !tbaa !35
  tail call void (i64, ptr, ...) @rb_raise(i64 noundef %4, ptr noundef nonnull @.str.101) #23
  unreachable

get_addrinfo.exit:                                ; preds = %1
  %5 = getelementptr inbounds nuw i8, ptr %2, i64 16
  %6 = load i32, ptr %5, align 8, !tbaa !119
  %7 = sext i32 %6 to i64
  %8 = shl nsw i64 %7, 1
  %9 = or disjoint i64 %8, 1
  ret i64 %9
}